target datalayout = "e-m:e-p270:32:32-p271:32:32-p272:64:64-i64:64-i128:128-f80:128-n8:16:32:64-S128"
target triple = "x86_64-pc-linux-gnu"

@hf_gryphon_ldf_num_node_names = internal global i32 0, align 4
@hf_gryphon_ldf_master_node_name = internal global i32 0, align 4
@hf_gryphon_ldf_slave_node_name = internal global i32 0, align 4

; Function Attrs: null_pointer_is_valid sspstrong uwtable
define internal i32 @resp_ldf_get_node_names(ptr noundef %0, i32 noundef %1, ptr noundef %2) #0 {
  %4 = alloca ptr, align 8
  %5 = alloca i32, align 4
  %6 = alloca ptr, align 8
  %7 = alloca i32, align 4
  %8 = alloca i16, align 2
  store ptr %0, ptr %4, align 8
  store i32 %1, ptr %5, align 4
  store ptr %2, ptr %6, align 8
  call void @llvm.lifetime.start.p0(i64 4, ptr %7) #7
  call void @llvm.lifetime.start.p0(i64 2, ptr %8) #7
  %9 = load ptr, ptr %4, align 8
  %10 = load i32, ptr %5, align 4
  %11 = call zeroext i16 @tvb_get_ntohs(ptr noundef %9, i32 noundef %10)
  store i16 %11, ptr %8, align 2
  %12 = load ptr, ptr %6, align 8
  %13 = load i32, ptr @hf_gryphon_ldf_num_node_names, align 4
  %14 = load ptr, ptr %4, align 8
  %15 = load i32, ptr %5, align 4
  %16 = call ptr @proto_tree_add_item(ptr noundef %12, i32 noundef %13, ptr noundef %14, i32 noundef %15, i32 noundef 2, i32 noundef 0)
  %17 = load i32, ptr %5, align 4
  %18 = add i32 %17, 2
  store i32 %18, ptr %5, align 4
  %19 = load ptr, ptr %6, align 8
  %20 = load i32, ptr @hf_gryphon_ldf_master_node_name, align 4
  %21 = load ptr, ptr %4, align 8
  %22 = load i32, ptr %5, align 4
  %23 = call ptr @proto_tree_add_item_ret_length(ptr noundef %19, i32 noundef %20, ptr noundef %21, i32 noundef %22, i32 noundef -1, i32 noundef 0, ptr noundef %7)
  %24 = load i32, ptr %7, align 4
  %25 = load i32, ptr %5, align 4
  %26 = add i32 %25, %24
  store i32 %26, ptr %5, align 4
  %27 = load i16, ptr %8, align 2
  %28 = zext i16 %27 to i32
  %29 = sub i32 %28, 1
  %30 = trunc i32 %29 to i16
  store i16 %30, ptr %8, align 2
  br label %31

31:                                               ; preds = %35, %3
  %32 = load i16, ptr %8, align 2
  %33 = zext i16 %32 to i32
  %34 = icmp sgt i32 %33, 0
  br i1 %34, label %35, label %48

35:                                               ; preds = %31
  %36 = load ptr, ptr %6, align 8
  %37 = load i32, ptr @hf_gryphon_ldf_slave_node_name, align 4
  %38 = load ptr, ptr %4, align 8
  %39 = load i32, ptr %5, align 4
  %40 = call ptr @proto_tree_add_item_ret_length(ptr noundef %36, i32 noundef %37, ptr noundef %38, i32 noundef %39, i32 noundef -1, i32 noundef 0, ptr noundef %7)
  %41 = load i32, ptr %7, align 4
  %42 = load i32, ptr %5, align 4
  %43 = add i32 %42, %41
  store i32 %43, ptr %5, align 4
  %44 = load i16, ptr %8, align 2
  %45 = zext i16 %44 to i32
  %46 = sub i32 %45, 1
  %47 = trunc i32 %46 to i16
  store i16 %47, ptr %8, align 2
  br label %31, !llvm.loop !33

48:                                               ; preds = %31
  %49 = load i32, ptr %5, align 4
  call void @llvm.lifetime.end.p0(i64 2, ptr %8) #7
  call void @llvm.lifetime.end.p0(i64 4, ptr %7) #7
  ret i32 %49
}