; Function Attrs: null_pointer_is_valid sspstrong uwtable
define internal fastcc i32 @resp_ldf_get_node_names(ptr noundef %0, ptr noundef %1) unnamed_addr #0 {
  %3 = alloca i32, align 4
  call void @llvm.lifetime.start.p0(i64 4, ptr nonnull %3) #5
  %4 = tail call zeroext i16 @tvb_get_ntohs(ptr noundef %0, i32 noundef 16)
  %5 = load i32, ptr @hf_gryphon_ldf_num_node_names, align 4
  %6 = tail call ptr @proto_tree_add_item(ptr noundef %1, i32 noundef %5, ptr noundef %0, i32 noundef 16, i32 noundef 2, i32 noundef 0)
  %7 = load i32, ptr @hf_gryphon_ldf_master_node_name, align 4
  %8 = call ptr @proto_tree_add_item_ret_length(ptr noundef %1, i32 noundef %7, ptr noundef %0, i32 noundef 18, i32 noundef -1, i32 noundef 0, ptr noundef nonnull %3)
  %9 = load i32, ptr %3, align 4
  %10 = add i32 %9, 18
  %.019 = add i16 %4, -1
  %.not20 = icmp eq i16 %.019, 0
  br i1 %.not20, label %._crit_edge, label %.lr.ph

.lr.ph:                                           ; preds = %2, %.lr.ph
  %.022 = phi i16 [ %.0, %.lr.ph ], [ %.019, %2 ]
  %.01721 = phi i32 [ %14, %.lr.ph ], [ %10, %2 ]
  %11 = load i32, ptr @hf_gryphon_ldf_slave_node_name, align 4
  %12 = call ptr @proto_tree_add_item_ret_length(ptr noundef %1, i32 noundef %11, ptr noundef %0, i32 noundef %.01721, i32 noundef -1, i32 noundef 0, ptr noundef nonnull %3)
  %13 = load i32, ptr %3, align 4
  %14 = add i32 %13, %.01721
  %.0 = add i16 %.022, -1
  %.not = icmp eq i16 %.0, 0
  br i1 %.not, label %._crit_edge, label %.lr.ph, !llvm.loop !33

._crit_edge:                                      ; preds = %.lr.ph, %2
  %.017.lcssa = phi i32 [ %10, %2 ], [ %14, %.lr.ph ]
  call void @llvm.lifetime.end.p0(i64 4, ptr nonnull %3) #5
  ret i32 %.017.lcssa
}